target datalayout = "e-m:e-p270:32:32-p271:32:32-p272:64:64-i64:64-i128:128-f80:128-n8:16:32:64-S128"
target triple = "x86_64-pc-linux-gnu"

%"class.std::__shared_count" = type { ptr }
%"class.duckdb::unique_ptr" = type { %"class.std::unique_ptr" }
%"class.std::unique_ptr" = type { %"struct.std::__uniq_ptr_data" }
%"struct.std::__uniq_ptr_data" = type { %"class.std::__uniq_ptr_impl" }
%"class.std::__uniq_ptr_impl" = type { %"class.std::tuple" }
%"class.std::tuple" = type { %"struct.std::_Tuple_impl" }
%"struct.std::_Tuple_impl" = type { %"struct.std::_Head_base.2" }
%"struct.std::_Head_base.2" = type { ptr }
%"class.duckdb::CompressionInfo" = type { i64 }
%"struct.duckdb::roaring::ContainerMetadataCollection" = type { %"class.duckdb::vector.73", %"class.duckdb::vector.73", %"class.duckdb::vector.73", i64, i64, i64 }
%"class.duckdb::vector.73" = type { %"class.std::vector.74" }
%"class.std::vector.74" = type { %"struct.std::_Vector_base.75" }
%"struct.std::_Vector_base.75" = type { %"struct.std::_Vector_base<unsigned char, std::allocator<unsigned char>>::_Vector_impl" }
%"struct.std::_Vector_base<unsigned char, std::allocator<unsigned char>>::_Vector_impl" = type { %"struct.std::_Vector_base<unsigned char, std::allocator<unsigned char>>::_Vector_impl_data" }
%"struct.std::_Vector_base<unsigned char, std::allocator<unsigned char>>::_Vector_impl_data" = type { ptr, ptr, ptr }
%"struct.duckdb::roaring::RoaringCompressState" = type { %"struct.duckdb::CompressionState", %"class.duckdb::unique_ptr", ptr, %"struct.duckdb::roaring::ContainerCompressionState", %"struct.duckdb::roaring::ContainerMetadataCollection", ptr, ptr, ptr, %"class.duckdb::unique_ptr.111", %"class.duckdb::BufferHandle", ptr, ptr, i64 }
%"struct.duckdb::CompressionState" = type { ptr, %"class.duckdb::CompressionInfo" }
%"struct.duckdb::roaring::ContainerCompressionState" = type { i16, i8, i16, i16, i8, ptr, ptr, [2 x ptr], [2 x ptr], [4 x %"struct.duckdb::roaring::RunContainerRLEPair"], [2 x [8 x i16]], i16, [2 x i16], [2 x ptr], ptr, [2 x [248 x i8]], [248 x i8], [2 x [8 x i8]], [8 x i8], ptr, i8, ptr }
%"struct.duckdb::roaring::RunContainerRLEPair" = type { i16, i16 }
%"class.duckdb::unique_ptr.111" = type { %"class.std::unique_ptr.112" }
%"class.std::unique_ptr.112" = type { %"struct.std::__uniq_ptr_data.113" }
%"struct.std::__uniq_ptr_data.113" = type { %"class.std::__uniq_ptr_impl.114" }
%"class.std::__uniq_ptr_impl.114" = type { %"class.std::tuple.115" }
%"class.std::tuple.115" = type { %"struct.std::_Tuple_impl.116" }
%"struct.std::_Tuple_impl.116" = type { %"struct.std::_Head_base.119" }
%"struct.std::_Head_base.119" = type { ptr }
%"class.duckdb::BufferHandle" = type { %"class.duckdb::shared_ptr.120", %"class.duckdb::optional_ptr.124" }
%"class.duckdb::shared_ptr.120" = type { %"class.std::shared_ptr.121" }
%"class.std::shared_ptr.121" = type { %"class.std::__shared_ptr.122" }
%"class.std::__shared_ptr.122" = type { ptr, %"class.std::__shared_count" }
%"class.duckdb::optional_ptr.124" = type { ptr }

; Function Attrs: mustprogress uwtable
define void @_ZN6duckdb7roaring25ContainerCompressionState6AppendEbt(ptr noundef nonnull align 8 dereferenceable(936) %0, i1 noundef zeroext %1, i16 noundef zeroext %2) #0 align 2 {
  %4 = alloca ptr, align 8
  %5 = alloca i8, align 1
  %6 = alloca i16, align 2
  store ptr %0, ptr %4, align 8, !tbaa !331
  %7 = zext i1 %1 to i8
  store i8 %7, ptr %5, align 1, !tbaa !136
  store i16 %2, ptr %6, align 2, !tbaa !137
  %8 = load ptr, ptr %4, align 8
  %9 = getelementptr inbounds nuw %"struct.duckdb::roaring::ContainerCompressionState", ptr %8, i32 0, i32 21
  %10 = load ptr, ptr %9, align 8, !tbaa !347
  %11 = load i8, ptr %5, align 1, !tbaa !136, !range !278, !noundef !279
  %12 = trunc i8 %11 to i1
  %13 = load i16, ptr %6, align 2, !tbaa !137
  call void %10(ptr noundef nonnull align 8 dereferenceable(936) %8, i1 noundef zeroext %12, i16 noundef zeroext %13)
  %14 = load i8, ptr %5, align 1, !tbaa !136, !range !278, !noundef !279
  %15 = trunc i8 %14 to i1
  %16 = getelementptr inbounds nuw %"struct.duckdb::roaring::ContainerCompressionState", ptr %8, i32 0, i32 4
  %17 = zext i1 %15 to i8
  store i8 %17, ptr %16, align 8, !tbaa !338
  %18 = load i8, ptr %5, align 1, !tbaa !136, !range !278, !noundef !279
  %19 = trunc i8 %18 to i1
  %20 = zext i1 %19 to i32
  %21 = load i16, ptr %6, align 2, !tbaa !137
  %22 = zext i16 %21 to i32
  %23 = mul nsw i32 %20, %22
  %24 = getelementptr inbounds nuw %"struct.duckdb::roaring::ContainerCompressionState", ptr %8, i32 0, i32 3
  %25 = load i16, ptr %24, align 2, !tbaa !337
  %26 = zext i16 %25 to i32
  %27 = add nsw i32 %26, %23
  %28 = trunc i32 %27 to i16
  store i16 %28, ptr %24, align 2, !tbaa !337
  %29 = load i16, ptr %6, align 2, !tbaa !137
  %30 = zext i16 %29 to i32
  %31 = getelementptr inbounds nuw %"struct.duckdb::roaring::ContainerCompressionState", ptr %8, i32 0, i32 2
  %32 = load i16, ptr %31, align 4, !tbaa !336
  %33 = zext i16 %32 to i32
  %34 = add nsw i32 %33, %30
  %35 = trunc i32 %34 to i16
  store i16 %35, ptr %31, align 4, !tbaa !336
  ret void
}

; Function Attrs: inlinehint mustprogress uwtable
define internal void @_ZN6duckdb7roaringL9HandleBitERNS0_20RoaringCompressStateEb(ptr noundef nonnull align 8 dereferenceable(1144) %0, i1 noundef zeroext %1) #4 {
  %3 = alloca ptr, align 8
  %4 = alloca i8, align 1
  %5 = alloca ptr, align 8
  store ptr %0, ptr %3, align 8, !tbaa !152
  %6 = zext i1 %1 to i8
  store i8 %6, ptr %4, align 1, !tbaa !136
  call void @llvm.lifetime.start.p0(i64 8, ptr %5) #19
  %7 = load ptr, ptr %3, align 8, !tbaa !152
  %8 = getelementptr inbounds nuw %"struct.duckdb::roaring::RoaringCompressState", ptr %7, i32 0, i32 3
  store ptr %8, ptr %5, align 8, !tbaa !331
  %9 = load ptr, ptr %5, align 8, !tbaa !331
  %10 = getelementptr inbounds nuw %"struct.duckdb::roaring::ContainerCompressionState", ptr %9, i32 0, i32 0
  %11 = load i16, ptr %10, align 8, !tbaa !333
  %12 = icmp ne i16 %11, 0
  br i1 %12, label %13, label %35

13:                                               ; preds = %2
  %14 = load ptr, ptr %5, align 8, !tbaa !331
  %15 = getelementptr inbounds nuw %"struct.duckdb::roaring::ContainerCompressionState", ptr %14, i32 0, i32 1
  %16 = load i8, ptr %15, align 2, !tbaa !436, !range !278, !noundef !279
  %17 = trunc i8 %16 to i1
  %18 = zext i1 %17 to i32
  %19 = load i8, ptr %4, align 1, !tbaa !136, !range !278, !noundef !279
  %20 = trunc i8 %19 to i1
  %21 = zext i1 %20 to i32
  %22 = icmp ne i32 %18, %21
  br i1 %22, label %23, label %35

23:                                               ; preds = %13
  %24 = load ptr, ptr %5, align 8, !tbaa !331
  %25 = load ptr, ptr %5, align 8, !tbaa !331
  %26 = getelementptr inbounds nuw %"struct.duckdb::roaring::ContainerCompressionState", ptr %25, i32 0, i32 1
  %27 = load i8, ptr %26, align 2, !tbaa !436, !range !278, !noundef !279
  %28 = trunc i8 %27 to i1
  %29 = xor i1 %28, true
  %30 = load ptr, ptr %5, align 8, !tbaa !331
  %31 = getelementptr inbounds nuw %"struct.duckdb::roaring::ContainerCompressionState", ptr %30, i32 0, i32 0
  %32 = load i16, ptr %31, align 8, !tbaa !333
  call void @_ZN6duckdb7roaring25ContainerCompressionState6AppendEbt(ptr noundef nonnull align 8 dereferenceable(936) %24, i1 noundef zeroext %29, i16 noundef zeroext %32)
  %33 = load ptr, ptr %5, align 8, !tbaa !331
  %34 = getelementptr inbounds nuw %"struct.duckdb::roaring::ContainerCompressionState", ptr %33, i32 0, i32 0
  store i16 0, ptr %34, align 8, !tbaa !333
  br label %35

35:                                               ; preds = %23, %13, %2
  %36 = load ptr, ptr %5, align 8, !tbaa !331
  %37 = getelementptr inbounds nuw %"struct.duckdb::roaring::ContainerCompressionState", ptr %36, i32 0, i32 0
  %38 = load i16, ptr %37, align 8, !tbaa !333
  %39 = zext i16 %38 to i32
  %40 = add nsw i32 %39, 1
  %41 = trunc i32 %40 to i16
  store i16 %41, ptr %37, align 8, !tbaa !333
  %42 = load i8, ptr %4, align 1, !tbaa !136, !range !278, !noundef !279
  %43 = trunc i8 %42 to i1
  %44 = load ptr, ptr %5, align 8, !tbaa !331
  %45 = getelementptr inbounds nuw %"struct.duckdb::roaring::ContainerCompressionState", ptr %44, i32 0, i32 1
  %46 = zext i1 %43 to i8
  store i8 %46, ptr %45, align 2, !tbaa !436
  call void @llvm.lifetime.end.p0(i64 8, ptr %5) #19
  ret void
}

; Function Attrs: mustprogress uwtable
define void @_ZN6duckdb7roaring20RoaringCompressState16HandleRaggedByteERS1_hm(ptr noundef nonnull align 8 dereferenceable(1144) %0, i8 noundef zeroext %1, i64 noundef %2) #0 align 2 {
  %4 = alloca ptr, align 8
  %5 = alloca i8, align 1
  %6 = alloca i64, align 8
  %7 = alloca i64, align 8
  %8 = alloca i8, align 1
  store ptr %0, ptr %4, align 8, !tbaa !152
  store i8 %1, ptr %5, align 1, !tbaa !292
  store i64 %2, ptr %6, align 8, !tbaa !8
  call void @llvm.lifetime.start.p0(i64 8, ptr %7) #19
  store i64 0, ptr %7, align 8, !tbaa !8
  br label %9

9:                                                ; preds = %26, %3
  %10 = load i64, ptr %7, align 8, !tbaa !8
  %11 = load i64, ptr %6, align 8, !tbaa !8
  %12 = icmp ult i64 %10, %11
  br i1 %12, label %14, label %13

13:                                               ; preds = %9
  call void @llvm.lifetime.end.p0(i64 8, ptr %7) #19
  br label %29

14:                                               ; preds = %9
  call void @llvm.lifetime.start.p0(i64 1, ptr %8) #19
  %15 = load i8, ptr %5, align 1, !tbaa !292
  %16 = zext i8 %15 to i32
  %17 = load i64, ptr %7, align 8, !tbaa !8
  %18 = trunc i64 %17 to i32
  %19 = shl i32 1, %18
  %20 = and i32 %16, %19
  %21 = icmp ne i32 %20, 0
  %22 = zext i1 %21 to i8
  store i8 %22, ptr %8, align 1, !tbaa !136
  %23 = load ptr, ptr %4, align 8, !tbaa !152
  %24 = load i8, ptr %8, align 1, !tbaa !136, !range !278, !noundef !279
  %25 = trunc i8 %24 to i1
  call void @_ZN6duckdb7roaringL9HandleBitERNS0_20RoaringCompressStateEb(ptr noundef nonnull align 8 dereferenceable(1144) %23, i1 noundef zeroext %25)
  call void @llvm.lifetime.end.p0(i64 1, ptr %8) #19
  br label %26

26:                                               ; preds = %14
  %27 = load i64, ptr %7, align 8, !tbaa !8
  %28 = add i64 %27, 1
  store i64 %28, ptr %7, align 8, !tbaa !8
  br label %9, !llvm.loop !437

29:                                               ; preds = %13
  ret void
}