; Function Attrs: mustprogress uwtable
define void @_ZN6duckdb7roaring20RoaringCompressState16HandleRaggedByteERS1_hm(ptr noundef nonnull align 8 dereferenceable(1144) %0, i8 noundef zeroext %1, i64 noundef %2) local_unnamed_addr #0 align 2 {
  %.not = icmp eq i64 %2, 0
  br i1 %.not, label %._crit_edge, label %.lr.ph

.lr.ph:                                           ; preds = %3
  %4 = zext i8 %1 to i32
  %5 = getelementptr inbounds nuw i8, ptr %0, i64 32
  %6 = getelementptr inbounds nuw i8, ptr %0, i64 34
  %7 = getelementptr inbounds nuw i8, ptr %0, i64 960
  %8 = getelementptr inbounds nuw i8, ptr %0, i64 40
  %9 = getelementptr inbounds nuw i8, ptr %0, i64 38
  %10 = getelementptr inbounds nuw i8, ptr %0, i64 36
  %.pre = load i16, ptr %5, align 8, !tbaa !330
  br label %11

._crit_edge:                                      ; preds = %_ZN6duckdb7roaringL9HandleBitERNS0_20RoaringCompressStateEb.exit, %3
  ret void

11:                                               ; preds = %.lr.ph, %_ZN6duckdb7roaringL9HandleBitERNS0_20RoaringCompressStateEb.exit
  %12 = phi i16 [ %.pre, %.lr.ph ], [ %31, %_ZN6duckdb7roaringL9HandleBitERNS0_20RoaringCompressStateEb.exit ]
  %.06 = phi i64 [ 0, %.lr.ph ], [ %32, %_ZN6duckdb7roaringL9HandleBitERNS0_20RoaringCompressStateEb.exit ]
  %13 = trunc i64 %.06 to i32
  %14 = shl nuw i32 1, %13
  %15 = and i32 %14, %4
  %16 = icmp ne i32 %15, 0
  %.not.i = icmp eq i16 %12, 0
  br i1 %.not.i, label %._crit_edge.i, label %17

._crit_edge.i:                                    ; preds = %11
  %.pre.i = zext i1 %16 to i8
  br label %_ZN6duckdb7roaringL9HandleBitERNS0_20RoaringCompressStateEb.exit

17:                                               ; preds = %11
  %18 = load i8, ptr %6, align 2, !tbaa !412, !range !319, !noundef !229
  %19 = zext i1 %16 to i8
  %.not10.i = icmp eq i8 %18, %19
  br i1 %.not10.i, label %_ZN6duckdb7roaringL9HandleBitERNS0_20RoaringCompressStateEb.exit, label %20

20:                                               ; preds = %17
  %21 = trunc nuw i8 %18 to i1
  %22 = xor i1 %21, true
  %23 = zext i1 %22 to i8
  %24 = load ptr, ptr %7, align 8, !tbaa !344
  tail call void %24(ptr noundef nonnull align 8 dereferenceable(936) %5, i1 noundef zeroext %22, i16 noundef zeroext %12)
  store i8 %23, ptr %8, align 8, !tbaa !343
  %25 = select i1 %21, i16 0, i16 %12
  %26 = load i16, ptr %9, align 2, !tbaa !341
  %27 = add i16 %26, %25
  store i16 %27, ptr %9, align 2, !tbaa !341
  %28 = load i16, ptr %10, align 4, !tbaa !340
  %29 = add i16 %28, %12
  store i16 %29, ptr %10, align 4, !tbaa !340
  br label %_ZN6duckdb7roaringL9HandleBitERNS0_20RoaringCompressStateEb.exit

_ZN6duckdb7roaringL9HandleBitERNS0_20RoaringCompressStateEb.exit: ; preds = %._crit_edge.i, %17, %20
  %.pre-phi.i = phi i8 [ %.pre.i, %._crit_edge.i ], [ %19, %20 ], [ %18, %17 ]
  %30 = phi i16 [ 0, %._crit_edge.i ], [ 0, %20 ], [ %12, %17 ]
  %31 = add i16 %30, 1
  store i16 %31, ptr %5, align 8, !tbaa !330
  store i8 %.pre-phi.i, ptr %6, align 2, !tbaa !412
  %32 = add nuw i64 %.06, 1
  %exitcond.not = icmp eq i64 %32, %2
  br i1 %exitcond.not, label %._crit_edge, label %11, !llvm.loop !413
}